target datalayout = "e-m:e-p270:32:32-p271:32:32-p272:64:64-i64:64-i128:128-f80:128-n8:16:32:64-S128"
target triple = "x86_64-pc-linux-gnu"

%struct.expert_field = type { i32, i32 }

@hf_pfcp_ul_mbr = internal global i32 0, align 4
@hf_pfcp_dl_mbr = internal global i32 0, align 4
@ei_pfcp_ie_data_not_decoded = internal global %struct.expert_field zeroinitializer, align 4
@ei_pfcp_ie_encoding_error = internal global %struct.expert_field zeroinitializer, align 4

; Function Attrs: null_pointer_is_valid sspstrong uwtable
define internal void @dissect_pfcp_mbr(ptr noundef %0, ptr noundef %1, ptr noundef %2, ptr noundef %3, i16 noundef zeroext %4, i8 noundef zeroext %5, ptr noundef %6) #0 {
  %8 = alloca ptr, align 8
  %9 = alloca ptr, align 8
  %10 = alloca ptr, align 8
  %11 = alloca ptr, align 8
  %12 = alloca i16, align 2
  %13 = alloca i8, align 1
  %14 = alloca ptr, align 8
  %15 = alloca i32, align 4
  %16 = alloca i32, align 4
  store ptr %0, ptr %8, align 8
  store ptr %1, ptr %9, align 8
  store ptr %2, ptr %10, align 8
  store ptr %3, ptr %11, align 8
  store i16 %4, ptr %12, align 2
  store i8 %5, ptr %13, align 1
  store ptr %6, ptr %14, align 8
  call void @llvm.lifetime.start.p0(i64 4, ptr %15) #13
  store i32 0, ptr %15, align 4
  call void @llvm.lifetime.start.p0(i64 4, ptr %16) #13
  %17 = load i16, ptr %12, align 2
  %18 = zext i16 %17 to i32
  %19 = icmp ne i32 %18, 10
  br i1 %19, label %20, label %24

20:                                               ; preds = %7
  %21 = load i16, ptr %12, align 2
  %22 = zext i16 %21 to i32
  %23 = sdiv i32 %22, 2
  br label %25

24:                                               ; preds = %7
  br label %25

25:                                               ; preds = %24, %20
  %26 = phi i32 [ %23, %20 ], [ 5, %24 ]
  store i32 %26, ptr %16, align 4
  %27 = load i16, ptr %12, align 2
  %28 = zext i16 %27 to i32
  %29 = icmp ne i32 %28, 10
  br i1 %29, label %30, label %35

30:                                               ; preds = %25
  %31 = load ptr, ptr %10, align 8
  %32 = load ptr, ptr %9, align 8
  %33 = load ptr, ptr %8, align 8
  %34 = call ptr @proto_tree_add_expert(ptr noundef %31, ptr noundef %32, ptr noundef @ei_pfcp_ie_encoding_error, ptr noundef %33, i32 noundef 0, i32 noundef 1)
  br label %35

35:                                               ; preds = %30, %25
  %36 = load ptr, ptr %10, align 8
  %37 = load i32, ptr @hf_pfcp_ul_mbr, align 4
  %38 = load ptr, ptr %8, align 8
  %39 = load i32, ptr %15, align 4
  %40 = load i32, ptr %16, align 4
  %41 = call ptr @proto_tree_add_item(ptr noundef %36, i32 noundef %37, ptr noundef %38, i32 noundef %39, i32 noundef %40, i32 noundef 0)
  %42 = load i32, ptr %16, align 4
  %43 = load i32, ptr %15, align 4
  %44 = add i32 %43, %42
  store i32 %44, ptr %15, align 4
  %45 = load ptr, ptr %10, align 8
  %46 = load i32, ptr @hf_pfcp_dl_mbr, align 4
  %47 = load ptr, ptr %8, align 8
  %48 = load i32, ptr %15, align 4
  %49 = load i32, ptr %16, align 4
  %50 = call ptr @proto_tree_add_item(ptr noundef %45, i32 noundef %46, ptr noundef %47, i32 noundef %48, i32 noundef %49, i32 noundef 0)
  %51 = load i32, ptr %16, align 4
  %52 = load i32, ptr %15, align 4
  %53 = add i32 %52, %51
  store i32 %53, ptr %15, align 4
  %54 = load i32, ptr %15, align 4
  %55 = load i16, ptr %12, align 2
  %56 = zext i16 %55 to i32
  %57 = icmp slt i32 %54, %56
  br i1 %57, label %58, label %64

58:                                               ; preds = %35
  %59 = load ptr, ptr %10, align 8
  %60 = load ptr, ptr %9, align 8
  %61 = load ptr, ptr %8, align 8
  %62 = load i32, ptr %15, align 4
  %63 = call ptr @proto_tree_add_expert(ptr noundef %59, ptr noundef %60, ptr noundef @ei_pfcp_ie_data_not_decoded, ptr noundef %61, i32 noundef %62, i32 noundef -1)
  br label %64

64:                                               ; preds = %58, %35
  call void @llvm.lifetime.end.p0(i64 4, ptr %16) #13
  call void @llvm.lifetime.end.p0(i64 4, ptr %15) #13
  ret void
}