; Function Attrs: null_pointer_is_valid sspstrong uwtable
define internal void @dissect_pfcp_mbr(ptr noundef %0, ptr noundef %1, ptr noundef %2, ptr readnone captures(none) %3, i16 noundef zeroext %4, i8 zeroext %5, ptr readnone captures(none) %6) #0 {
  %8 = zext i16 %4 to i32
  %.not = icmp eq i16 %4, 10
  %9 = lshr i32 %8, 1
  br i1 %.not, label %12, label %10

10:                                               ; preds = %7
  %11 = tail call ptr @proto_tree_add_expert(ptr noundef %2, ptr noundef %1, ptr noundef nonnull @ei_pfcp_ie_encoding_error, ptr noundef %0, i32 noundef 0, i32 noundef 1)
  br label %12

12:                                               ; preds = %10, %7
  %13 = load i32, ptr @hf_pfcp_ul_mbr, align 4
  %14 = tail call ptr @proto_tree_add_item(ptr noundef %2, i32 noundef %13, ptr noundef %0, i32 noundef 0, i32 noundef %9, i32 noundef 0)
  %15 = load i32, ptr @hf_pfcp_dl_mbr, align 4
  %16 = tail call ptr @proto_tree_add_item(ptr noundef %2, i32 noundef %15, ptr noundef %0, i32 noundef %9, i32 noundef %9, i32 noundef 0)
  %17 = and i32 %8, 65534
  %.not24 = icmp eq i32 %17, %8
  br i1 %.not24, label %20, label %18

18:                                               ; preds = %12
  %19 = tail call ptr @proto_tree_add_expert(ptr noundef %2, ptr noundef %1, ptr noundef nonnull @ei_pfcp_ie_data_not_decoded, ptr noundef %0, i32 noundef %17, i32 noundef -1)
  br label %20

20:                                               ; preds = %18, %12
  ret void
}